target datalayout = "e-m:e-p270:32:32-p271:32:32-p272:64:64-i64:64-i128:128-f80:128-n8:16:32:64-S128"
target triple = "x86_64-pc-linux-gnu"

%struct.Map_NodeStruct_t_ = type { ptr, ptr, i32, i32, i32, i32, [3 x i32], [3 x float], float, ptr, ptr, ptr, ptr, [2 x %struct.Map_TimeStruct_t_], [2 x %struct.Map_TimeStruct_t_], [2 x ptr], ptr, ptr, ptr }
%struct.Map_TimeStruct_t_ = type { float, float, float }

; Function Attrs: nounwind uwtable
define i32 @Map_NodeIncRefPhaseAct(ptr noundef %0, i32 noundef %1) #0 {
  %3 = alloca i32, align 4
  %4 = alloca ptr, align 8
  %5 = alloca i32, align 4
  store ptr %0, ptr %4, align 8, !tbaa !3
  store i32 %1, ptr %5, align 4, !tbaa !8
  %6 = load ptr, ptr %4, align 8, !tbaa !3
  %7 = getelementptr inbounds nuw %struct.Map_NodeStruct_t_, ptr %6, i32 0, i32 15
  %8 = getelementptr inbounds [2 x ptr], ptr %7, i64 0, i64 0
  %9 = load ptr, ptr %8, align 8, !tbaa !10
  %10 = icmp ne ptr %9, null
  br i1 %10, label %11, label %25

11:                                               ; preds = %2
  %12 = load ptr, ptr %4, align 8, !tbaa !3
  %13 = getelementptr inbounds nuw %struct.Map_NodeStruct_t_, ptr %12, i32 0, i32 15
  %14 = getelementptr inbounds [2 x ptr], ptr %13, i64 0, i64 1
  %15 = load ptr, ptr %14, align 8, !tbaa !10
  %16 = icmp ne ptr %15, null
  br i1 %16, label %17, label %25

17:                                               ; preds = %11
  %18 = load ptr, ptr %4, align 8, !tbaa !3
  %19 = getelementptr inbounds nuw %struct.Map_NodeStruct_t_, ptr %18, i32 0, i32 6
  %20 = load i32, ptr %5, align 4, !tbaa !8
  %21 = sext i32 %20 to i64
  %22 = getelementptr inbounds [3 x i32], ptr %19, i64 0, i64 %21
  %23 = load i32, ptr %22, align 4, !tbaa !8
  %24 = add nsw i32 %23, 1
  store i32 %24, ptr %22, align 4, !tbaa !8
  store i32 %23, ptr %3, align 4
  br label %31

25:                                               ; preds = %11, %2
  %26 = load ptr, ptr %4, align 8, !tbaa !3
  %27 = getelementptr inbounds nuw %struct.Map_NodeStruct_t_, ptr %26, i32 0, i32 6
  %28 = getelementptr inbounds [3 x i32], ptr %27, i64 0, i64 2
  %29 = load i32, ptr %28, align 8, !tbaa !8
  %30 = add nsw i32 %29, 1
  store i32 %30, ptr %28, align 8, !tbaa !8
  store i32 %29, ptr %3, align 4
  br label %31

31:                                               ; preds = %25, %17
  %32 = load i32, ptr %3, align 4
  ret i32 %32
}